; Function Attrs: mustprogress uwtable
define hidden noundef zeroext i1 @_ZN2cv3dnn19IsTransposeRequiredEmRKSt6vectorImSaImEE(i64 noundef %0, ptr nocapture noundef nonnull readonly align 8 dereferenceable(24) %1) local_unnamed_addr #3 personality ptr @__gxx_personality_v0 {
  %3 = alloca %"class.std::__cxx11::basic_string", align 8
  %4 = alloca %"class.std::allocator.0", align 1
  %5 = getelementptr inbounds i8, ptr %1, i64 8
  %6 = load ptr, ptr %5, align 8
  %7 = load ptr, ptr %1, align 8
  %8 = ptrtoint ptr %6 to i64
  %9 = ptrtoint ptr %7 to i64
  %10 = sub i64 %8, %9
  %11 = ashr exact i64 %10, 3
  %12 = icmp eq i64 %11, %0
  br i1 %12, label %21, label %13

13:                                               ; preds = %2
  call void @_ZNSaIcEC1Ev(ptr noundef nonnull align 1 dereferenceable(1) %4) #21
  invoke void @_ZNSt7__cxx1112basic_stringIcSt11char_traitsIcESaIcEEC1EPKcRKS3_(ptr noundef nonnull align 8 dereferenceable(32) %3, ptr noundef nonnull @.str, ptr noundef nonnull align 1 dereferenceable(1) %4)
          to label %14 unwind label %16

14:                                               ; preds = %13
  invoke void @_ZN2cv5errorEiRKNSt7__cxx1112basic_stringIcSt11char_traitsIcESaIcEEEPKcS9_i(i32 noundef -215, ptr noundef nonnull align 8 dereferenceable(32) %3, ptr noundef nonnull @__func__._ZN2cv3dnn19IsTransposeRequiredEmRKSt6vectorImSaImEE, ptr noundef nonnull @.str.1, i32 noundef 68) #22
          to label %15 unwind label %18

15:                                               ; preds = %14
  unreachable

16:                                               ; preds = %13
  %17 = landingpad { ptr, i32 }
          cleanup
  br label %20

18:                                               ; preds = %14
  %19 = landingpad { ptr, i32 }
          cleanup
  call void @_ZNSt7__cxx1112basic_stringIcSt11char_traitsIcESaIcEED1Ev(ptr noundef nonnull align 8 dereferenceable(32) %3) #21
  br label %20

20:                                               ; preds = %18, %16
  %.pn = phi { ptr, i32 } [ %19, %18 ], [ %17, %16 ]
  call void @_ZNSaIcED1Ev(ptr noundef nonnull align 1 dereferenceable(1) %4) #21
  resume { ptr, i32 } %.pn

21:                                               ; preds = %2
  %22 = icmp eq i64 %0, 0
  br i1 %22, label %.loopexit, label %.preheader

.preheader:                                       ; preds = %21, %.preheader
  %.018 = phi i64 [ %25, %.preheader ], [ 0, %21 ]
  %23 = getelementptr inbounds i64, ptr %7, i64 %.018
  %24 = load i64, ptr %23, align 8
  %.not.not = icmp ne i64 %24, %.018
  %25 = add nuw i64 %.018, 1
  %exitcond.not = icmp eq i64 %25, %0
  %or.cond = select i1 %.not.not, i1 true, i1 %exitcond.not
  br i1 %or.cond, label %.loopexit, label %.preheader, !llvm.loop !4

.loopexit:                                        ; preds = %.preheader, %21
  %.015 = phi i1 [ false, %21 ], [ %.not.not, %.preheader ]
  ret i1 %.015
}